; Function Attrs: mustprogress nofree norecurse nosync nounwind willreturn memory(argmem: read) uwtable
define dso_local noundef float @_ZN16btManifoldResult25calculateCombinedFrictionEPK17btCollisionObjectS2_(ptr noundef readonly captures(none) %0, ptr noundef readonly captures(none) %1) #0 align 2 {
  %3 = getelementptr inbounds nuw i8, ptr %0, i64 248
  %4 = load float, ptr %3, align 8, !tbaa !20
  %5 = getelementptr inbounds nuw i8, ptr %1, i64 248
  %6 = load float, ptr %5, align 8, !tbaa !20
  %7 = fmul float %4, %6
  %8 = fcmp olt float %7, -1.000000e+01
  %.0 = select i1 %8, float -1.000000e+01, float %7
  %9 = fcmp ogt float %.0, 1.000000e+01
  %.1 = select i1 %9, float 1.000000e+01, float %.0
  ret float %.1
}